target datalayout = "e-m:e-p270:32:32-p271:32:32-p272:64:64-i64:64-i128:128-f80:128-n8:16:32:64-S128"
target triple = "x86_64-pc-linux-gnu"

%struct.AVCodecContext = type { ptr, i32, i32, ptr, i32, i32, ptr, ptr, ptr, i64, i32, i32, ptr, i32, %struct.AVRational, %struct.AVRational, %struct.AVRational, i32, i32, i32, i32, i32, %struct.AVRational, i32, i32, i32, i32, i32, i32, i32, i32, i32, i32, i32, ptr, ptr, i32, float, float, float, float, float, float, float, float, float, i32, i32, i32, i32, i32, i32, i32, i32, i32, i32, i32, i32, ptr, ptr, ptr, i32, i32, i32, i32, i32, i32, i32, i32, i32, i32, %struct.AVChannelLayout, i32, i32, i32, i32, i32, i32, i32, i32, ptr, i32, i32, i32, float, float, i32, i32, i32, i32, i32, ptr, i64, i64, float, float, i32, i32, ptr, ptr, i32, i32, i32, i32, i32, ptr, ptr, ptr, ptr, i32, i32, [8 x i64], i32, i32, i32, i32, i32, i32, i32, ptr, ptr, i32, i32, i32, i32, i32, i32, i32, i32, i32, i32, ptr, ptr, i32, i32, ptr, ptr, ptr, ptr, i32, i32, i64, i32, i32, i64, ptr, i64, ptr, i32, ptr, i32 }
%struct.AVRational = type { i32, i32 }
%struct.AVChannelLayout = type { i32, i32, %union.anon, ptr }
%union.anon = type { i64 }
%struct.AVCodecInternal = type { i32, i32, i32, ptr, ptr, ptr, ptr, ptr, ptr, ptr, i32, ptr, ptr, ptr, i32, i32, ptr, i32, ptr, ptr, i32, i32 }
%struct.SliceThreadContext = type { ptr, ptr, ptr, ptr, ptr, ptr, i32 }

; Function Attrs: nounwind uwtable
define internal void @worker_func(ptr noundef %0, i32 noundef %1, i32 noundef %2, i32 noundef %3, i32 noundef %4) #3 {
  %6 = alloca ptr, align 8
  %7 = alloca i32, align 4
  %8 = alloca i32, align 4
  %9 = alloca i32, align 4
  %10 = alloca i32, align 4
  %11 = alloca ptr, align 8
  %12 = alloca ptr, align 8
  %13 = alloca i32, align 4
  store ptr %0, ptr %6, align 8, !tbaa !38
  store i32 %1, ptr %7, align 4, !tbaa !40
  store i32 %2, ptr %8, align 4, !tbaa !40
  store i32 %3, ptr %9, align 4, !tbaa !40
  store i32 %4, ptr %10, align 4, !tbaa !40
  call void @llvm.lifetime.start.p0(i64 8, ptr %11) #5
  %14 = load ptr, ptr %6, align 8, !tbaa !38
  store ptr %14, ptr %11, align 8, !tbaa !4
  call void @llvm.lifetime.start.p0(i64 8, ptr %12) #5
  %15 = load ptr, ptr %11, align 8, !tbaa !4
  %16 = getelementptr inbounds nuw %struct.AVCodecContext, ptr %15, i32 0, i32 7
  %17 = load ptr, ptr %16, align 8, !tbaa !9
  %18 = getelementptr inbounds nuw %struct.AVCodecInternal, ptr %17, i32 0, i32 5
  %19 = load ptr, ptr %18, align 8, !tbaa !29
  store ptr %19, ptr %12, align 8, !tbaa !36
  call void @llvm.lifetime.start.p0(i64 4, ptr %13) #5
  %20 = load ptr, ptr %12, align 8, !tbaa !36
  %21 = getelementptr inbounds nuw %struct.SliceThreadContext, ptr %20, i32 0, i32 1
  %22 = load ptr, ptr %21, align 8, !tbaa !49
  %23 = icmp ne ptr %22, null
  br i1 %23, label %24, label %40

24:                                               ; preds = %5
  %25 = load ptr, ptr %12, align 8, !tbaa !36
  %26 = getelementptr inbounds nuw %struct.SliceThreadContext, ptr %25, i32 0, i32 1
  %27 = load ptr, ptr %26, align 8, !tbaa !49
  %28 = load ptr, ptr %11, align 8, !tbaa !4
  %29 = load ptr, ptr %12, align 8, !tbaa !36
  %30 = getelementptr inbounds nuw %struct.SliceThreadContext, ptr %29, i32 0, i32 4
  %31 = load ptr, ptr %30, align 8, !tbaa !48
  %32 = load ptr, ptr %12, align 8, !tbaa !36
  %33 = getelementptr inbounds nuw %struct.SliceThreadContext, ptr %32, i32 0, i32 6
  %34 = load i32, ptr %33, align 8, !tbaa !47
  %35 = load i32, ptr %7, align 4, !tbaa !40
  %36 = mul nsw i32 %34, %35
  %37 = sext i32 %36 to i64
  %38 = getelementptr inbounds i8, ptr %31, i64 %37
  %39 = call i32 %27(ptr noundef %28, ptr noundef %38)
  br label %51

40:                                               ; preds = %5
  %41 = load ptr, ptr %12, align 8, !tbaa !36
  %42 = getelementptr inbounds nuw %struct.SliceThreadContext, ptr %41, i32 0, i32 2
  %43 = load ptr, ptr %42, align 8, !tbaa !41
  %44 = load ptr, ptr %11, align 8, !tbaa !4
  %45 = load ptr, ptr %12, align 8, !tbaa !36
  %46 = getelementptr inbounds nuw %struct.SliceThreadContext, ptr %45, i32 0, i32 4
  %47 = load ptr, ptr %46, align 8, !tbaa !48
  %48 = load i32, ptr %7, align 4, !tbaa !40
  %49 = load i32, ptr %8, align 4, !tbaa !40
  %50 = call i32 %43(ptr noundef %44, ptr noundef %47, i32 noundef %48, i32 noundef %49)
  br label %51

51:                                               ; preds = %40, %24
  %52 = phi i32 [ %39, %24 ], [ %50, %40 ]
  store i32 %52, ptr %13, align 4, !tbaa !40
  %53 = load ptr, ptr %12, align 8, !tbaa !36
  %54 = getelementptr inbounds nuw %struct.SliceThreadContext, ptr %53, i32 0, i32 5
  %55 = load ptr, ptr %54, align 8, !tbaa !50
  %56 = icmp ne ptr %55, null
  br i1 %56, label %57, label %65

57:                                               ; preds = %51
  %58 = load i32, ptr %13, align 4, !tbaa !40
  %59 = load ptr, ptr %12, align 8, !tbaa !36
  %60 = getelementptr inbounds nuw %struct.SliceThreadContext, ptr %59, i32 0, i32 5
  %61 = load ptr, ptr %60, align 8, !tbaa !50
  %62 = load i32, ptr %7, align 4, !tbaa !40
  %63 = sext i32 %62 to i64
  %64 = getelementptr inbounds i32, ptr %61, i64 %63
  store i32 %58, ptr %64, align 4, !tbaa !40
  br label %65

65:                                               ; preds = %57, %51
  call void @llvm.lifetime.end.p0(i64 4, ptr %13) #5
  call void @llvm.lifetime.end.p0(i64 8, ptr %12) #5
  call void @llvm.lifetime.end.p0(i64 8, ptr %11) #5
  ret void
}