; Function Attrs: nounwind uwtable
define internal void @worker_func(ptr noundef %0, i32 noundef %1, i32 noundef %2, i32 %3, i32 %4) #2 {
  %6 = getelementptr inbounds nuw i8, ptr %0, i64 40
  %7 = load ptr, ptr %6, align 8, !tbaa !4
  %8 = getelementptr inbounds nuw i8, ptr %7, i64 32
  %9 = load ptr, ptr %8, align 8, !tbaa !27
  %10 = getelementptr inbounds nuw i8, ptr %9, i64 8
  %11 = load ptr, ptr %10, align 8, !tbaa !42
  %.not = icmp eq ptr %11, null
  br i1 %.not, label %21, label %12

12:                                               ; preds = %5
  %13 = getelementptr inbounds nuw i8, ptr %9, i64 32
  %14 = load ptr, ptr %13, align 8, !tbaa !41
  %15 = getelementptr inbounds nuw i8, ptr %9, i64 48
  %16 = load i32, ptr %15, align 8, !tbaa !40
  %17 = mul nsw i32 %16, %1
  %18 = sext i32 %17 to i64
  %19 = getelementptr inbounds i8, ptr %14, i64 %18
  %20 = tail call i32 %11(ptr noundef nonnull %0, ptr noundef %19) #4
  br label %27

21:                                               ; preds = %5
  %22 = getelementptr inbounds nuw i8, ptr %9, i64 16
  %23 = load ptr, ptr %22, align 8, !tbaa !34
  %24 = getelementptr inbounds nuw i8, ptr %9, i64 32
  %25 = load ptr, ptr %24, align 8, !tbaa !41
  %26 = tail call i32 %23(ptr noundef nonnull %0, ptr noundef %25, i32 noundef %1, i32 noundef %2) #4
  br label %27

27:                                               ; preds = %21, %12
  %28 = phi i32 [ %20, %12 ], [ %26, %21 ]
  %29 = getelementptr inbounds nuw i8, ptr %9, i64 40
  %30 = load ptr, ptr %29, align 8, !tbaa !43
  %.not17 = icmp eq ptr %30, null
  br i1 %.not17, label %34, label %31

31:                                               ; preds = %27
  %32 = sext i32 %1 to i64
  %33 = getelementptr inbounds i32, ptr %30, i64 %32
  store i32 %28, ptr %33, align 4, !tbaa !49
  br label %34

34:                                               ; preds = %31, %27
  ret void
}